target datalayout = "e-m:e-p270:32:32-p271:32:32-p272:64:64-i64:64-i128:128-f80:128-n8:16:32:64-S128"
target triple = "x86_64-pc-linux-gnu"

%struct.reassembly_table = type { ptr, ptr, ptr, ptr, ptr }
%struct._fragment_head = type { ptr, ptr, i32, i32, i32, i32, i32, i32, i32, i8, i32, ptr, ptr }
%struct._fragment_item = type { ptr, i32, i32, i32, i32, ptr }

@.str = private unnamed_addr constant [29 x i8] c"%s:%u: failed assertion \22%s\22\00", align 1
@.str.1 = private unnamed_addr constant [18 x i8] c"epan/reassemble.c\00", align 1
@.str.6 = private unnamed_addr constant [24 x i8] c"fd_head->flags & 0x0001\00", align 1

; Function Attrs: null_pointer_is_valid sspstrong uwtable
define internal void @fragment_reset_defragmentation(ptr noundef %0) #1 {
  %2 = alloca ptr, align 8
  %3 = alloca ptr, align 8
  store ptr %0, ptr %2, align 8
  %4 = load ptr, ptr %2, align 8
  %5 = getelementptr inbounds nuw %struct._fragment_head, ptr %4, i32 0, i32 10
  %6 = load i32, ptr %5, align 8
  %7 = and i32 %6, 1
  %8 = icmp ne i32 %7, 0
  br i1 %8, label %9, label %10

9:                                                ; preds = %1
  br label %12

10:                                               ; preds = %1
  call void (ptr, ...) @proto_report_dissector_bug(ptr noundef @.str, ptr noundef @.str.1, i32 noundef 768, ptr noundef @.str.6) #18
  unreachable

11:                                               ; No predecessors!
  br label %12

12:                                               ; preds = %11, %9
  call void @llvm.lifetime.start.p0(i64 8, ptr %3) #16
  %13 = load ptr, ptr %2, align 8
  %14 = getelementptr inbounds nuw %struct._fragment_head, ptr %13, i32 0, i32 0
  %15 = load ptr, ptr %14, align 8
  store ptr %15, ptr %3, align 8
  br label %16

16:                                               ; preds = %44, %12
  %17 = load ptr, ptr %3, align 8
  %18 = icmp ne ptr %17, null
  br i1 %18, label %20, label %19

19:                                               ; preds = %16
  call void @llvm.lifetime.end.p0(i64 8, ptr %3) #16
  br label %48

20:                                               ; preds = %16
  %21 = load ptr, ptr %3, align 8
  %22 = getelementptr inbounds nuw %struct._fragment_item, ptr %21, i32 0, i32 5
  %23 = load ptr, ptr %22, align 8
  %24 = icmp ne ptr %23, null
  br i1 %24, label %39, label %25

25:                                               ; preds = %20
  %26 = load ptr, ptr %2, align 8
  %27 = getelementptr inbounds nuw %struct._fragment_head, ptr %26, i32 0, i32 11
  %28 = load ptr, ptr %27, align 8
  %29 = load ptr, ptr %3, align 8
  %30 = getelementptr inbounds nuw %struct._fragment_item, ptr %29, i32 0, i32 2
  %31 = load i32, ptr %30, align 4
  %32 = call ptr @tvb_new_subset_remaining(ptr noundef %28, i32 noundef %31)
  %33 = load ptr, ptr %3, align 8
  %34 = getelementptr inbounds nuw %struct._fragment_item, ptr %33, i32 0, i32 5
  store ptr %32, ptr %34, align 8
  %35 = load ptr, ptr %3, align 8
  %36 = getelementptr inbounds nuw %struct._fragment_item, ptr %35, i32 0, i32 4
  %37 = load i32, ptr %36, align 4
  %38 = or i32 %37, 32
  store i32 %38, ptr %36, align 4
  br label %39

39:                                               ; preds = %25, %20
  %40 = load ptr, ptr %3, align 8
  %41 = getelementptr inbounds nuw %struct._fragment_item, ptr %40, i32 0, i32 4
  %42 = load i32, ptr %41, align 4
  %43 = and i32 %42, -25
  store i32 %43, ptr %41, align 4
  br label %44

44:                                               ; preds = %39
  %45 = load ptr, ptr %3, align 8
  %46 = getelementptr inbounds nuw %struct._fragment_item, ptr %45, i32 0, i32 0
  %47 = load ptr, ptr %46, align 8
  store ptr %47, ptr %3, align 8
  br label %16, !llvm.loop !10

48:                                               ; preds = %19
  %49 = load ptr, ptr %2, align 8
  %50 = getelementptr inbounds nuw %struct._fragment_head, ptr %49, i32 0, i32 10
  %51 = load i32, ptr %50, align 8
  %52 = and i32 %51, -1090
  store i32 %52, ptr %50, align 8
  %53 = load ptr, ptr %2, align 8
  %54 = getelementptr inbounds nuw %struct._fragment_head, ptr %53, i32 0, i32 10
  %55 = load i32, ptr %54, align 8
  %56 = and i32 %55, -25
  store i32 %56, ptr %54, align 8
  %57 = load ptr, ptr %2, align 8
  %58 = getelementptr inbounds nuw %struct._fragment_head, ptr %57, i32 0, i32 7
  store i32 0, ptr %58, align 4
  %59 = load ptr, ptr %2, align 8
  %60 = getelementptr inbounds nuw %struct._fragment_head, ptr %59, i32 0, i32 8
  store i32 0, ptr %60, align 8
  %61 = load ptr, ptr %2, align 8
  %62 = getelementptr inbounds nuw %struct._fragment_head, ptr %61, i32 0, i32 9
  store i8 0, ptr %62, align 4
  ret void
}

; Function Attrs: null_pointer_is_valid sspstrong uwtable
define internal ptr @lookup_fd_head(ptr noundef %0, ptr noundef %1, i32 noundef %2, ptr noundef %3, ptr noundef %4) #1 {
  %6 = alloca ptr, align 8
  %7 = alloca ptr, align 8
  %8 = alloca i32, align 4
  %9 = alloca ptr, align 8
  %10 = alloca ptr, align 8
  %11 = alloca ptr, align 8
  %12 = alloca ptr, align 8
  store ptr %0, ptr %6, align 8
  store ptr %1, ptr %7, align 8
  store i32 %2, ptr %8, align 4
  store ptr %3, ptr %9, align 8
  store ptr %4, ptr %10, align 8
  call void @llvm.lifetime.start.p0(i64 8, ptr %11) #16
  call void @llvm.lifetime.start.p0(i64 8, ptr %12) #16
  %13 = load ptr, ptr %6, align 8
  %14 = getelementptr inbounds nuw %struct.reassembly_table, ptr %13, i32 0, i32 2
  %15 = load ptr, ptr %14, align 8
  %16 = load ptr, ptr %7, align 8
  %17 = load i32, ptr %8, align 4
  %18 = load ptr, ptr %9, align 8
  %19 = call ptr %15(ptr noundef %16, i32 noundef %17, ptr noundef %18)
  store ptr %19, ptr %11, align 8
  %20 = load ptr, ptr %6, align 8
  %21 = getelementptr inbounds nuw %struct.reassembly_table, ptr %20, i32 0, i32 0
  %22 = load ptr, ptr %21, align 8
  %23 = load ptr, ptr %11, align 8
  %24 = load ptr, ptr %10, align 8
  %25 = call i32 @g_hash_table_lookup_extended(ptr noundef %22, ptr noundef %23, ptr noundef %24, ptr noundef %12)
  %26 = icmp ne i32 %25, 0
  br i1 %26, label %28, label %27

27:                                               ; preds = %5
  store ptr null, ptr %12, align 8
  br label %28

28:                                               ; preds = %27, %5
  %29 = load ptr, ptr %6, align 8
  %30 = getelementptr inbounds nuw %struct.reassembly_table, ptr %29, i32 0, i32 4
  %31 = load ptr, ptr %30, align 8
  %32 = load ptr, ptr %11, align 8
  call void %31(ptr noundef %32)
  %33 = load ptr, ptr %12, align 8
  call void @llvm.lifetime.end.p0(i64 8, ptr %12) #16
  call void @llvm.lifetime.end.p0(i64 8, ptr %11) #16
  ret ptr %33
}

; Function Attrs: null_pointer_is_valid sspstrong uwtable
define hidden void @fragment_reset_tot_len(ptr noundef %0, ptr noundef %1, i32 noundef %2, ptr noundef %3, i32 noundef %4) #1 {
  %6 = alloca ptr, align 8
  %7 = alloca ptr, align 8
  %8 = alloca i32, align 4
  %9 = alloca ptr, align 8
  %10 = alloca i32, align 4
  %11 = alloca ptr, align 8
  %12 = alloca i32, align 4
  store ptr %0, ptr %6, align 8
  store ptr %1, ptr %7, align 8
  store i32 %2, ptr %8, align 4
  store ptr %3, ptr %9, align 8
  store i32 %4, ptr %10, align 4
  call void @llvm.lifetime.start.p0(i64 8, ptr %11) #16
  %13 = load ptr, ptr %6, align 8
  %14 = load ptr, ptr %7, align 8
  %15 = load i32, ptr %8, align 4
  %16 = load ptr, ptr %9, align 8
  %17 = call ptr @lookup_fd_head(ptr noundef %13, ptr noundef %14, i32 noundef %15, ptr noundef %16, ptr noundef null)
  store ptr %17, ptr %11, align 8
  %18 = load ptr, ptr %11, align 8
  %19 = icmp ne ptr %18, null
  br i1 %19, label %21, label %20

20:                                               ; preds = %5
  store i32 1, ptr %12, align 4
  br label %48

21:                                               ; preds = %5
  %22 = load ptr, ptr %11, align 8
  %23 = getelementptr inbounds nuw %struct._fragment_head, ptr %22, i32 0, i32 10
  %24 = load i32, ptr %23, align 8
  %25 = and i32 %24, -65
  store i32 %25, ptr %23, align 8
  %26 = load i32, ptr %10, align 4
  %27 = load ptr, ptr %11, align 8
  %28 = getelementptr inbounds nuw %struct._fragment_head, ptr %27, i32 0, i32 7
  %29 = load i32, ptr %28, align 4
  %30 = icmp eq i32 %26, %29
  br i1 %30, label %31, label %32

31:                                               ; preds = %21
  store i32 1, ptr %12, align 4
  br label %48

32:                                               ; preds = %21
  %33 = load ptr, ptr %11, align 8
  %34 = getelementptr inbounds nuw %struct._fragment_head, ptr %33, i32 0, i32 10
  %35 = load i32, ptr %34, align 8
  %36 = and i32 %35, 1
  %37 = icmp ne i32 %36, 0
  br i1 %37, label %38, label %40

38:                                               ; preds = %32
  %39 = load ptr, ptr %11, align 8
  call void @fragment_reset_defragmentation(ptr noundef %39)
  br label %40

40:                                               ; preds = %38, %32
  %41 = load i32, ptr %10, align 4
  %42 = load ptr, ptr %11, align 8
  %43 = getelementptr inbounds nuw %struct._fragment_head, ptr %42, i32 0, i32 7
  store i32 %41, ptr %43, align 4
  %44 = load ptr, ptr %11, align 8
  %45 = getelementptr inbounds nuw %struct._fragment_head, ptr %44, i32 0, i32 10
  %46 = load i32, ptr %45, align 8
  %47 = or i32 %46, 1024
  store i32 %47, ptr %45, align 8
  store i32 0, ptr %12, align 4
  br label %48

48:                                               ; preds = %40, %31, %20
  call void @llvm.lifetime.end.p0(i64 8, ptr %11) #16
  %49 = load i32, ptr %12, align 4
  switch i32 %49, label %51 [
    i32 0, label %50
    i32 1, label %50
  ]

50:                                               ; preds = %48, %48
  ret void

51:                                               ; preds = %48
  unreachable
}