; Function Attrs: null_pointer_is_valid sspstrong uwtable
define hidden void @fragment_reset_tot_len(ptr noundef readonly captures(none) %0, ptr noundef %1, i32 noundef %2, ptr noundef %3, i32 noundef %4) local_unnamed_addr #2 {
  %6 = alloca ptr, align 8
  call void @llvm.lifetime.start.p0(i64 8, ptr nonnull %6) #18
  %7 = getelementptr inbounds nuw i8, ptr %0, i64 16
  %8 = load ptr, ptr %7, align 8
  %9 = tail call ptr %8(ptr noundef %1, i32 noundef %2, ptr noundef %3)
  %10 = load ptr, ptr %0, align 8
  %11 = call i32 @g_hash_table_lookup_extended(ptr noundef %10, ptr noundef %9, ptr noundef null, ptr noundef nonnull %6)
  %.not.i = icmp eq i32 %11, 0
  br i1 %.not.i, label %12, label %lookup_fd_head.exit

12:                                               ; preds = %5
  store ptr null, ptr %6, align 8
  br label %lookup_fd_head.exit

lookup_fd_head.exit:                              ; preds = %5, %12
  %13 = getelementptr inbounds nuw i8, ptr %0, i64 32
  %14 = load ptr, ptr %13, align 8
  call void %14(ptr noundef %9)
  %15 = load ptr, ptr %6, align 8
  call void @llvm.lifetime.end.p0(i64 8, ptr nonnull %6) #18
  %.not = icmp eq ptr %15, null
  br i1 %.not, label %47, label %16

16:                                               ; preds = %lookup_fd_head.exit
  %17 = getelementptr inbounds nuw i8, ptr %15, i64 48
  %18 = load i32, ptr %17, align 8
  %19 = and i32 %18, -65
  store i32 %19, ptr %17, align 8
  %20 = getelementptr inbounds nuw i8, ptr %15, i64 36
  %21 = load i32, ptr %20, align 4
  %22 = icmp eq i32 %4, %21
  br i1 %22, label %47, label %23

23:                                               ; preds = %16
  %24 = and i32 %18, 1
  %.not13 = icmp eq i32 %24, 0
  br i1 %.not13, label %44, label %.preheader.i

.preheader.i:                                     ; preds = %23
  %.017.i = load ptr, ptr %15, align 8
  %.not1518.i = icmp eq ptr %.017.i, null
  br i1 %.not1518.i, label %fragment_reset_defragmentation.exit, label %.lr.ph.i

.lr.ph.i:                                         ; preds = %.preheader.i
  %25 = getelementptr inbounds nuw i8, ptr %15, i64 56
  br label %26

._crit_edge.loopexit.i:                           ; preds = %37
  %.pre21.i = load i32, ptr %17, align 8
  br label %fragment_reset_defragmentation.exit

26:                                               ; preds = %37, %.lr.ph.i
  %.019.i = phi ptr [ %.017.i, %.lr.ph.i ], [ %.0.i, %37 ]
  %27 = getelementptr inbounds nuw i8, ptr %.019.i, i64 24
  %28 = load ptr, ptr %27, align 8
  %.not16.i = icmp eq ptr %28, null
  br i1 %.not16.i, label %29, label %._crit_edge20.i

._crit_edge20.i:                                  ; preds = %26
  %.phi.trans.insert.i = getelementptr inbounds nuw i8, ptr %.019.i, i64 20
  %.pre.i = load i32, ptr %.phi.trans.insert.i, align 4
  br label %37

29:                                               ; preds = %26
  %30 = load ptr, ptr %25, align 8
  %31 = getelementptr inbounds nuw i8, ptr %.019.i, i64 12
  %32 = load i32, ptr %31, align 4
  %33 = call ptr @tvb_new_subset_remaining(ptr noundef %30, i32 noundef %32)
  store ptr %33, ptr %27, align 8
  %34 = getelementptr inbounds nuw i8, ptr %.019.i, i64 20
  %35 = load i32, ptr %34, align 4
  %36 = or i32 %35, 32
  br label %37

37:                                               ; preds = %29, %._crit_edge20.i
  %38 = phi i32 [ %.pre.i, %._crit_edge20.i ], [ %36, %29 ]
  %39 = getelementptr inbounds nuw i8, ptr %.019.i, i64 20
  %40 = and i32 %38, -25
  store i32 %40, ptr %39, align 4
  %.0.i = load ptr, ptr %.019.i, align 8
  %.not15.i = icmp eq ptr %.0.i, null
  br i1 %.not15.i, label %._crit_edge.loopexit.i, label %26, !llvm.loop !11

fragment_reset_defragmentation.exit:              ; preds = %.preheader.i, %._crit_edge.loopexit.i
  %41 = phi i32 [ %.pre21.i, %._crit_edge.loopexit.i ], [ %19, %.preheader.i ]
  %42 = and i32 %41, -1114
  %43 = getelementptr inbounds nuw i8, ptr %15, i64 40
  call void @llvm.memset.p0.i64(ptr noundef nonnull align 4 dereferenceable(9) %43, i8 0, i64 5, i1 false)
  br label %44

44:                                               ; preds = %fragment_reset_defragmentation.exit, %23
  %45 = phi i32 [ %42, %fragment_reset_defragmentation.exit ], [ %19, %23 ]
  store i32 %4, ptr %20, align 4
  %46 = or i32 %45, 1024
  store i32 %46, ptr %17, align 8
  br label %47

47:                                               ; preds = %16, %lookup_fd_head.exit, %44
  ret void
}